; Function Attrs: mustprogress nounwind uwtable
define dso_local ptr @LLVMDILocationGetInlinedAt(ptr noundef %0) local_unnamed_addr #0 {
  %2 = getelementptr inbounds i8, ptr %0, i64 -16
  %3 = load i64, ptr %2, align 8
  %4 = and i64 %3, 2
  %.not.i.i.i.i = icmp eq i64 %4, 0
  br i1 %.not.i.i.i.i, label %5, label %9

5:                                                ; preds = %1
  %6 = trunc i64 %3 to i32
  %7 = lshr i32 %6, 6
  %8 = and i32 %7, 15
  br label %_ZNK4llvm6MDNode14getNumOperandsEv.exit.i.i

9:                                                ; preds = %1
  %10 = getelementptr inbounds i8, ptr %0, i64 -32
  %11 = tail call noundef i64 @_ZNK4llvm15SmallVectorBaseIjE4sizeEv(ptr noundef nonnull align 8 dereferenceable(16) %10) #15
  %12 = trunc i64 %11 to i32
  br label %_ZNK4llvm6MDNode14getNumOperandsEv.exit.i.i

_ZNK4llvm6MDNode14getNumOperandsEv.exit.i.i:      ; preds = %9, %5
  %.0.i.i.i.i = phi i32 [ %12, %9 ], [ %8, %5 ]
  %13 = icmp eq i32 %.0.i.i.i.i, 2
  br i1 %13, label %14, label %_ZNK4llvm10DILocation12getInlinedAtEv.exit

14:                                               ; preds = %_ZNK4llvm6MDNode14getNumOperandsEv.exit.i.i
  %15 = load i64, ptr %2, align 8
  %16 = and i64 %15, 2
  %.not.i.i2.i.i = icmp eq i64 %16, 0
  br i1 %.not.i.i2.i.i, label %21, label %17

17:                                               ; preds = %14
  %18 = getelementptr inbounds i8, ptr %0, i64 -32
  %19 = load ptr, ptr %18, align 8
  %20 = tail call noundef i64 @_ZNK4llvm15SmallVectorBaseIjE4sizeEv(ptr noundef nonnull align 8 dereferenceable(16) %18) #15
  br label %_ZNK4llvm6MDNode10getOperandEj.exit.i.i

21:                                               ; preds = %14
  %22 = lshr i64 %15, 2
  %23 = and i64 %22, 15
  %24 = sub nsw i64 0, %23
  %25 = getelementptr inbounds %"class.llvm::MDOperand", ptr %2, i64 %24
  br label %_ZNK4llvm6MDNode10getOperandEj.exit.i.i

_ZNK4llvm6MDNode10getOperandEj.exit.i.i:          ; preds = %21, %17
  %.sroa.0.0.i.i.i.i = phi ptr [ %25, %21 ], [ %19, %17 ]
  %26 = getelementptr inbounds nuw i8, ptr %.sroa.0.0.i.i.i.i, i64 8
  %27 = load ptr, ptr %26, align 8
  br label %_ZNK4llvm10DILocation12getInlinedAtEv.exit

_ZNK4llvm10DILocation12getInlinedAtEv.exit:       ; preds = %_ZNK4llvm6MDNode14getNumOperandsEv.exit.i.i, %_ZNK4llvm6MDNode10getOperandEj.exit.i.i
  %.0.i.i = phi ptr [ %27, %_ZNK4llvm6MDNode10getOperandEj.exit.i.i ], [ null, %_ZNK4llvm6MDNode14getNumOperandsEv.exit.i.i ]
  ret ptr %.0.i.i
}